; Function Attrs: mustprogress uwtable
define hidden void @_ZN4cvc58internal3smt24PreprocessProofGenerator18notifyPreprocessedENS0_12NodeTemplateILb1EEES4_PNS0_14ProofGeneratorENS0_7TrustIdE(ptr noundef nonnull align 8 dereferenceable(792) %0, ptr noundef readonly captures(none) %1, ptr noundef readonly captures(none) %2, ptr noundef %3, i32 noundef %4) local_unnamed_addr #3 align 2 personality ptr @__gxx_personality_v0 {
  %6 = alloca %"class.cvc5::internal::TrustNode", align 8
  %7 = alloca %"class.cvc5::internal::NodeTemplate.313", align 8
  %8 = alloca %"class.cvc5::internal::NodeTemplate", align 8
  %9 = load ptr, ptr %1, align 8, !tbaa !64
  %10 = load ptr, ptr %2, align 8, !tbaa !64
  %11 = icmp eq ptr %9, %10
  br i1 %11, label %_ZN4cvc58internal12NodeTemplateILb1EED2Ev.exit, label %12

12:                                               ; preds = %5
  store ptr %9, ptr %7, align 8, !tbaa !105
  store ptr %10, ptr %8, align 8, !tbaa !64
  %13 = load i64, ptr %10, align 8
  %14 = lshr i64 %13, 40
  %15 = trunc nuw nsw i64 %14 to i32
  %16 = and i32 %15, 1048575
  %17 = icmp samesign ult i32 %16, 1048574
  br i1 %17, label %18, label %23, !prof !67

18:                                               ; preds = %12
  %19 = add i64 %13, 1099511627776
  %20 = and i64 %19, 1152920405095219200
  %21 = and i64 %13, -1152920405095219201
  %22 = or disjoint i64 %20, %21
  store i64 %22, ptr %10, align 8
  br label %_ZN4cvc58internal12NodeTemplateILb1EEC2ERKS2_.exit

23:                                               ; preds = %12
  %24 = icmp eq i32 %16, 1048574
  br i1 %24, label %25, label %_ZN4cvc58internal12NodeTemplateILb1EEC2ERKS2_.exit, !prof !68

25:                                               ; preds = %23
  %26 = or i64 %13, 1152920405095219200
  store i64 %26, ptr %10, align 8
  tail call void @_ZN4cvc58internal4expr9NodeValue20markRefCountMaxedOutEv(ptr noundef nonnull align 8 dereferenceable(24) %10)
  br label %_ZN4cvc58internal12NodeTemplateILb1EEC2ERKS2_.exit

_ZN4cvc58internal12NodeTemplateILb1EEC2ERKS2_.exit: ; preds = %25, %23, %18
  invoke void @_ZN4cvc58internal9TrustNode14mkTrustRewriteENS0_12NodeTemplateILb0EEENS2_ILb1EEEPNS0_14ProofGeneratorE(ptr dead_on_unwind nonnull writable sret(%"class.cvc5::internal::TrustNode") align 8 %6, ptr noundef nonnull %7, ptr noundef nonnull %8, ptr noundef %3)
          to label %27 unwind label %56

27:                                               ; preds = %_ZN4cvc58internal12NodeTemplateILb1EEC2ERKS2_.exit
  invoke void @_ZN4cvc58internal3smt24PreprocessProofGenerator25notifyTrustedPreprocessedENS0_9TrustNodeENS0_7TrustIdE(ptr noundef nonnull align 8 dereferenceable(792) %0, ptr noundef nonnull %6, i32 noundef %4)
          to label %28 unwind label %58

28:                                               ; preds = %27
  %29 = getelementptr inbounds nuw i8, ptr %6, i64 8
  %30 = load ptr, ptr %29, align 8, !tbaa !64
  %31 = load i64, ptr %30, align 8
  %32 = and i64 %31, 1152920405095219200
  %.not.i.i.i = icmp eq i64 %32, 1152920405095219200
  br i1 %.not.i.i.i, label %_ZN4cvc58internal9TrustNodeD2Ev.exit, label %33, !prof !68

33:                                               ; preds = %28
  %34 = add i64 %31, 1152920405095219200
  %35 = and i64 %34, 1152920405095219200
  %36 = and i64 %31, -1152920405095219201
  %37 = or disjoint i64 %35, %36
  store i64 %37, ptr %30, align 8
  %38 = icmp eq i64 %35, 0
  br i1 %38, label %39, label %_ZN4cvc58internal9TrustNodeD2Ev.exit, !prof !68

39:                                               ; preds = %33
  invoke void @_ZN4cvc58internal4expr9NodeValue15markForDeletionEv(ptr noundef nonnull align 8 dereferenceable(24) %30)
          to label %_ZN4cvc58internal9TrustNodeD2Ev.exit unwind label %40

40:                                               ; preds = %39
  %41 = landingpad { ptr, i32 }
          catch ptr null
  %42 = extractvalue { ptr, i32 } %41, 0
  call void @__clang_call_terminate(ptr %42) #26
  unreachable

_ZN4cvc58internal9TrustNodeD2Ev.exit:             ; preds = %28, %33, %39
  %43 = load ptr, ptr %8, align 8, !tbaa !64
  %44 = load i64, ptr %43, align 8
  %45 = and i64 %44, 1152920405095219200
  %.not.i.i = icmp eq i64 %45, 1152920405095219200
  br i1 %.not.i.i, label %_ZN4cvc58internal12NodeTemplateILb1EED2Ev.exit, label %46, !prof !68

46:                                               ; preds = %_ZN4cvc58internal9TrustNodeD2Ev.exit
  %47 = add i64 %44, 1152920405095219200
  %48 = and i64 %47, 1152920405095219200
  %49 = and i64 %44, -1152920405095219201
  %50 = or disjoint i64 %48, %49
  store i64 %50, ptr %43, align 8
  %51 = icmp eq i64 %48, 0
  br i1 %51, label %52, label %_ZN4cvc58internal12NodeTemplateILb1EED2Ev.exit, !prof !68

52:                                               ; preds = %46
  invoke void @_ZN4cvc58internal4expr9NodeValue15markForDeletionEv(ptr noundef nonnull align 8 dereferenceable(24) %43)
          to label %_ZN4cvc58internal12NodeTemplateILb1EED2Ev.exit unwind label %53

53:                                               ; preds = %52
  %54 = landingpad { ptr, i32 }
          catch ptr null
  %55 = extractvalue { ptr, i32 } %54, 0
  call void @__clang_call_terminate(ptr %55) #26
  unreachable

_ZN4cvc58internal12NodeTemplateILb1EED2Ev.exit:   ; preds = %52, %46, %_ZN4cvc58internal9TrustNodeD2Ev.exit, %5
  ret void

56:                                               ; preds = %_ZN4cvc58internal12NodeTemplateILb1EEC2ERKS2_.exit
  %57 = landingpad { ptr, i32 }
          cleanup
  br label %60

58:                                               ; preds = %27
  %59 = landingpad { ptr, i32 }
          cleanup
  call void @_ZN4cvc58internal9TrustNodeD2Ev(ptr noundef nonnull align 8 dereferenceable(24) %6) #24
  br label %60

60:                                               ; preds = %58, %56
  %.pn = phi { ptr, i32 } [ %59, %58 ], [ %57, %56 ]
  call void @_ZN4cvc58internal12NodeTemplateILb1EED2Ev(ptr noundef nonnull align 8 dereferenceable(8) %8) #24
  resume { ptr, i32 } %.pn
}